; Function Attrs: nounwind uwtable
define internal range(i32 -1, 1) i32 @H5O__fill_new_shared_post_copy_file(ptr nocapture readnone %0, ptr noundef %1, ptr nocapture noundef readonly %2, ptr noundef %3, ptr noundef %4, ptr noundef %5) #0 {
  %7 = load ptr, ptr %2, align 8
  %8 = tail call i32 @H5O__shared_post_copy_file(ptr noundef %7, ptr noundef nonnull @H5O_MSG_FILL_NEW, ptr noundef %1, ptr noundef %3, ptr noundef %4, ptr noundef %5) #8
  %9 = icmp slt i32 %8, 0
  br i1 %9, label %10, label %14

10:                                               ; preds = %6
  %11 = load i64, ptr @H5E_OHDR_g, align 8
  %12 = load i64, ptr @H5E_WRITEERROR_g, align 8
  %13 = tail call i32 (ptr, ptr, i32, i64, i64, ptr, ...) @H5E_printf_stack(ptr noundef nonnull @.str.10, ptr noundef nonnull @__func__.H5O__fill_new_shared_post_copy_file, i32 noundef 376, i64 noundef %11, i64 noundef %12, ptr noundef nonnull @.str.27) #8
  br label %14

14:                                               ; preds = %6, %10
  %.0 = phi i32 [ -1, %10 ], [ 0, %6 ]
  ret i32 %.0
}